#include <math.h>
#include <stdio.h>
#include <stdlib.h>
#include <string.h>
#include <iostream>
using namespace std;

/**
* @file		????.cpp
* @author	??	1000012792
* @date		2010.12.3
*/

int f(int n, int m);				//??f:????m????n?????????????????
int main()
{
	int n, num, i;
	cin >> n;						//n???n???
	for(i=0;i<n;i++)
	{
		cin >> num;					//????????num,????????
		cout << f(num, 2) << endl;
	}
	return 0;
}
int f(int n, int m)
{
	int i, count=0;
	if(n==1)
		return 1;					//??n=1?????????1
	for(i=m;i<=n;i++)				//?????i?m?????n??
	{
		if(n%i==0)					//??n??i???????n/i????(???????i)???????f(n/i,i)
			count += f(n/i,i);		//count?????????
	}
	return count;					//??count??
}